target datalayout = "e-m:e-p270:32:32-p271:32:32-p272:64:64-i64:64-i128:128-f80:128-n8:16:32:64-S128"
target triple = "x86_64-pc-linux-gnu"

%struct.lua_Debug = type { ptr, ptr, ptr, ptr, i32, i32, i8, i8, i8, ptr, [256 x i8] }

@.str.6 = private unnamed_addr constant [3 x i8] c"sl\00", align 1
@.str.7 = private unnamed_addr constant [8 x i8] c"%s:%d: \00", align 1
@.str.8 = private unnamed_addr constant [1 x i8] zeroinitializer, align 1

; Function Attrs: mustprogress uwtable
define dso_local void @_Z10luaL_whereP9lua_Statei(ptr noundef %0, i32 noundef %1) #3 {
  %3 = alloca ptr, align 8
  %4 = alloca i32, align 4
  %5 = alloca %struct.lua_Debug, align 8
  store ptr %0, ptr %3, align 8
  store i32 %1, ptr %4, align 4
  %6 = load ptr, ptr %3, align 8
  %7 = load i32, ptr %4, align 4
  %8 = call noundef i32 @_Z11lua_getinfoP9lua_StateiPKcP9lua_Debug(ptr noundef %6, i32 noundef %7, ptr noundef @.str.6, ptr noundef %5)
  %9 = icmp ne i32 %8, 0
  br i1 %9, label %10, label %21

10:                                               ; preds = %2
  %11 = getelementptr inbounds %struct.lua_Debug, ptr %5, i32 0, i32 5
  %12 = load i32, ptr %11, align 4
  %13 = icmp sgt i32 %12, 0
  br i1 %13, label %14, label %21

14:                                               ; preds = %10
  %15 = load ptr, ptr %3, align 8
  %16 = getelementptr inbounds %struct.lua_Debug, ptr %5, i32 0, i32 3
  %17 = load ptr, ptr %16, align 8
  %18 = getelementptr inbounds %struct.lua_Debug, ptr %5, i32 0, i32 5
  %19 = load i32, ptr %18, align 4
  %20 = call noundef ptr (ptr, ptr, ...) @_Z16lua_pushfstringLP9lua_StatePKcz(ptr noundef %15, ptr noundef @.str.7, ptr noundef %17, i32 noundef %19)
  br label %23

21:                                               ; preds = %10, %2
  %22 = load ptr, ptr %3, align 8
  call void @_Z15lua_pushlstringP9lua_StatePKcm(ptr noundef %22, ptr noundef @.str.8, i64 noundef 0)
  br label %23

23:                                               ; preds = %21, %14
  ret void
}