; Function Attrs: mustprogress uwtable
define dso_local void @_Z10luaL_whereP9lua_Statei(ptr noundef %0, i32 noundef %1) local_unnamed_addr #2 {
  %3 = alloca %struct.lua_Debug, align 8
  %4 = call noundef i32 @_Z11lua_getinfoP9lua_StateiPKcP9lua_Debug(ptr noundef %0, i32 noundef %1, ptr noundef nonnull @.str.6, ptr noundef nonnull %3)
  %5 = icmp ne i32 %4, 0
  %6 = getelementptr inbounds i8, ptr %3, i64 36
  %7 = load i32, ptr %6, align 4
  %8 = icmp sgt i32 %7, 0
  %or.cond = select i1 %5, i1 %8, i1 false
  br i1 %or.cond, label %9, label %13

9:                                                ; preds = %2
  %10 = getelementptr inbounds i8, ptr %3, i64 24
  %11 = load ptr, ptr %10, align 8
  %12 = call noundef ptr (ptr, ptr, ...) @_Z16lua_pushfstringLP9lua_StatePKcz(ptr noundef %0, ptr noundef nonnull @.str.7, ptr noundef %11, i32 noundef %7)
  br label %14

13:                                               ; preds = %2
  call void @_Z15lua_pushlstringP9lua_StatePKcm(ptr noundef %0, ptr noundef nonnull @.str.8, i64 noundef 0)
  br label %14

14:                                               ; preds = %13, %9
  ret void
}